target datalayout = "e-m:e-p270:32:32-p271:32:32-p272:64:64-i64:64-i128:128-f80:128-n8:16:32:64-S128"
target triple = "x86_64-pc-linux-gnu"

@Wayland_Vulkan_GetInstanceExtensions.extensionsForWayland = internal constant [2 x ptr] [ptr @.str.5, ptr @.str.6], align 16

; Function Attrs: nounwind uwtable
define hidden ptr @Wayland_Vulkan_GetInstanceExtensions(ptr noundef %0, ptr noundef %1) #0 {
  %3 = alloca ptr, align 8
  %4 = alloca ptr, align 8
  store ptr %0, ptr %3, align 8
  store ptr %1, ptr %4, align 8
  %5 = load ptr, ptr %4, align 8
  %6 = icmp ne ptr %5, null
  br i1 %6, label %7, label %9

7:                                                ; preds = %2
  %8 = load ptr, ptr %4, align 8
  store i32 2, ptr %8, align 4
  br label %9

9:                                                ; preds = %7, %2
  ret ptr @Wayland_Vulkan_GetInstanceExtensions.extensionsForWayland
}