; Function Attrs: mustprogress nofree norecurse nosync nounwind willreturn memory(argmem: write) uwtable
define hidden noundef nonnull ptr @Wayland_Vulkan_GetInstanceExtensions(ptr noundef readnone captures(none) %0, ptr noundef writeonly captures(address_is_null) %1) local_unnamed_addr #3 {
  %.not = icmp eq ptr %1, null
  br i1 %.not, label %4, label %3

3:                                                ; preds = %2
  store i32 2, ptr %1, align 4
  br label %4

4:                                                ; preds = %3, %2
  ret ptr @Wayland_Vulkan_GetInstanceExtensions.extensionsForWayland
}